
rv32ui-p-srai:     file format elf32-littleriscv


Disassembly of section .text.init:

80000000 <_start>:
80000000:	00000093          	li	ra,0
80000004:	00000113          	li	sp,0
80000008:	00000193          	li	gp,0
8000000c:	00000213          	li	tp,0
80000010:	00000293          	li	t0,0
80000014:	00000313          	li	t1,0
80000018:	00000393          	li	t2,0
8000001c:	00000413          	li	s0,0
80000020:	00000493          	li	s1,0
80000024:	00000513          	li	a0,0
80000028:	00000593          	li	a1,0
8000002c:	00000613          	li	a2,0
80000030:	00000693          	li	a3,0
80000034:	00000713          	li	a4,0
80000038:	00000793          	li	a5,0
8000003c:	00000813          	li	a6,0
80000040:	00000893          	li	a7,0
80000044:	00000913          	li	s2,0
80000048:	00000993          	li	s3,0
8000004c:	00000a13          	li	s4,0
80000050:	00000a93          	li	s5,0
80000054:	00000b13          	li	s6,0
80000058:	00000b93          	li	s7,0
8000005c:	00000c13          	li	s8,0
80000060:	00000c93          	li	s9,0
80000064:	00000d13          	li	s10,0
80000068:	00000d93          	li	s11,0
8000006c:	00000e13          	li	t3,0
80000070:	00000e93          	li	t4,0
80000074:	00000f13          	li	t5,0
80000078:	00000f93          	li	t6,0
8000007c:	00000013          	nop

80000080 <test_2>:
80000080:	00000093          	li	ra,0
80000084:	4000d713          	srai	a4,ra,0x0
80000088:	00000393          	li	t2,0
8000008c:	00200193          	li	gp,2
80000090:	2a771463          	bne	a4,t2,80000338 <fail>

80000094 <test_3>:
80000094:	800000b7          	lui	ra,0x80000
80000098:	4010d713          	srai	a4,ra,0x1
8000009c:	c00003b7          	lui	t2,0xc0000
800000a0:	00300193          	li	gp,3
800000a4:	28771a63          	bne	a4,t2,80000338 <fail>

800000a8 <test_4>:
800000a8:	800000b7          	lui	ra,0x80000
800000ac:	4070d713          	srai	a4,ra,0x7
800000b0:	ff0003b7          	lui	t2,0xff000
800000b4:	00400193          	li	gp,4
800000b8:	28771063          	bne	a4,t2,80000338 <fail>

800000bc <test_5>:
800000bc:	800000b7          	lui	ra,0x80000
800000c0:	40e0d713          	srai	a4,ra,0xe
800000c4:	fffe03b7          	lui	t2,0xfffe0
800000c8:	00500193          	li	gp,5
800000cc:	26771663          	bne	a4,t2,80000338 <fail>

800000d0 <test_6>:
800000d0:	800000b7          	lui	ra,0x80000
800000d4:	00108093          	addi	ra,ra,1 # 80000001 <_end+0xffffe001>
800000d8:	41f0d713          	srai	a4,ra,0x1f
800000dc:	fff00393          	li	t2,-1
800000e0:	00600193          	li	gp,6
800000e4:	24771a63          	bne	a4,t2,80000338 <fail>

800000e8 <test_7>:
800000e8:	800000b7          	lui	ra,0x80000
800000ec:	fff08093          	addi	ra,ra,-1 # 7fffffff <_end+0xffffdfff>
800000f0:	4000d713          	srai	a4,ra,0x0
800000f4:	800003b7          	lui	t2,0x80000
800000f8:	fff38393          	addi	t2,t2,-1 # 7fffffff <_end+0xffffdfff>
800000fc:	00700193          	li	gp,7
80000100:	22771c63          	bne	a4,t2,80000338 <fail>

80000104 <test_8>:
80000104:	800000b7          	lui	ra,0x80000
80000108:	fff08093          	addi	ra,ra,-1 # 7fffffff <_end+0xffffdfff>
8000010c:	4010d713          	srai	a4,ra,0x1
80000110:	400003b7          	lui	t2,0x40000
80000114:	fff38393          	addi	t2,t2,-1 # 3fffffff <_start-0x40000001>
80000118:	00800193          	li	gp,8
8000011c:	20771e63          	bne	a4,t2,80000338 <fail>

80000120 <test_9>:
80000120:	800000b7          	lui	ra,0x80000
80000124:	fff08093          	addi	ra,ra,-1 # 7fffffff <_end+0xffffdfff>
80000128:	4070d713          	srai	a4,ra,0x7
8000012c:	010003b7          	lui	t2,0x1000
80000130:	fff38393          	addi	t2,t2,-1 # ffffff <_start-0x7f000001>
80000134:	00900193          	li	gp,9
80000138:	20771063          	bne	a4,t2,80000338 <fail>

8000013c <test_10>:
8000013c:	800000b7          	lui	ra,0x80000
80000140:	fff08093          	addi	ra,ra,-1 # 7fffffff <_end+0xffffdfff>
80000144:	40e0d713          	srai	a4,ra,0xe
80000148:	000203b7          	lui	t2,0x20
8000014c:	fff38393          	addi	t2,t2,-1 # 1ffff <_start-0x7ffe0001>
80000150:	00a00193          	li	gp,10
80000154:	1e771263          	bne	a4,t2,80000338 <fail>

80000158 <test_11>:
80000158:	800000b7          	lui	ra,0x80000
8000015c:	fff08093          	addi	ra,ra,-1 # 7fffffff <_end+0xffffdfff>
80000160:	41f0d713          	srai	a4,ra,0x1f
80000164:	00000393          	li	t2,0
80000168:	00b00193          	li	gp,11
8000016c:	1c771663          	bne	a4,t2,80000338 <fail>

80000170 <test_12>:
80000170:	818180b7          	lui	ra,0x81818
80000174:	18108093          	addi	ra,ra,385 # 81818181 <_end+0x1816181>
80000178:	4000d713          	srai	a4,ra,0x0
8000017c:	818183b7          	lui	t2,0x81818
80000180:	18138393          	addi	t2,t2,385 # 81818181 <_end+0x1816181>
80000184:	00c00193          	li	gp,12
80000188:	1a771863          	bne	a4,t2,80000338 <fail>

8000018c <test_13>:
8000018c:	818180b7          	lui	ra,0x81818
80000190:	18108093          	addi	ra,ra,385 # 81818181 <_end+0x1816181>
80000194:	4010d713          	srai	a4,ra,0x1
80000198:	c0c0c3b7          	lui	t2,0xc0c0c
8000019c:	0c038393          	addi	t2,t2,192 # c0c0c0c0 <_end+0x40c0a0c0>
800001a0:	00d00193          	li	gp,13
800001a4:	18771a63          	bne	a4,t2,80000338 <fail>

800001a8 <test_14>:
800001a8:	818180b7          	lui	ra,0x81818
800001ac:	18108093          	addi	ra,ra,385 # 81818181 <_end+0x1816181>
800001b0:	4070d713          	srai	a4,ra,0x7
800001b4:	ff0303b7          	lui	t2,0xff030
800001b8:	30338393          	addi	t2,t2,771 # ff030303 <_end+0x7f02e303>
800001bc:	00e00193          	li	gp,14
800001c0:	16771c63          	bne	a4,t2,80000338 <fail>

800001c4 <test_15>:
800001c4:	818180b7          	lui	ra,0x81818
800001c8:	18108093          	addi	ra,ra,385 # 81818181 <_end+0x1816181>
800001cc:	40e0d713          	srai	a4,ra,0xe
800001d0:	fffe03b7          	lui	t2,0xfffe0
800001d4:	60638393          	addi	t2,t2,1542 # fffe0606 <_end+0x7ffde606>
800001d8:	00f00193          	li	gp,15
800001dc:	14771e63          	bne	a4,t2,80000338 <fail>

800001e0 <test_16>:
800001e0:	818180b7          	lui	ra,0x81818
800001e4:	18108093          	addi	ra,ra,385 # 81818181 <_end+0x1816181>
800001e8:	41f0d713          	srai	a4,ra,0x1f
800001ec:	fff00393          	li	t2,-1
800001f0:	01000193          	li	gp,16
800001f4:	14771263          	bne	a4,t2,80000338 <fail>

800001f8 <test_17>:
800001f8:	800000b7          	lui	ra,0x80000
800001fc:	4070d093          	srai	ra,ra,0x7
80000200:	ff0003b7          	lui	t2,0xff000
80000204:	01100193          	li	gp,17
80000208:	12709863          	bne	ra,t2,80000338 <fail>

8000020c <test_18>:
8000020c:	00000213          	li	tp,0
80000210:	800000b7          	lui	ra,0x80000
80000214:	4070d713          	srai	a4,ra,0x7
80000218:	00070313          	mv	t1,a4
8000021c:	00120213          	addi	tp,tp,1 # 1 <_start-0x7fffffff>
80000220:	00200293          	li	t0,2
80000224:	fe5216e3          	bne	tp,t0,80000210 <test_18+0x4>
80000228:	ff0003b7          	lui	t2,0xff000
8000022c:	01200193          	li	gp,18
80000230:	10731463          	bne	t1,t2,80000338 <fail>

80000234 <test_19>:
80000234:	00000213          	li	tp,0
80000238:	800000b7          	lui	ra,0x80000
8000023c:	40e0d713          	srai	a4,ra,0xe
80000240:	00000013          	nop
80000244:	00070313          	mv	t1,a4
80000248:	00120213          	addi	tp,tp,1 # 1 <_start-0x7fffffff>
8000024c:	00200293          	li	t0,2
80000250:	fe5214e3          	bne	tp,t0,80000238 <test_19+0x4>
80000254:	fffe03b7          	lui	t2,0xfffe0
80000258:	01300193          	li	gp,19
8000025c:	0c731e63          	bne	t1,t2,80000338 <fail>

80000260 <test_20>:
80000260:	00000213          	li	tp,0
80000264:	800000b7          	lui	ra,0x80000
80000268:	00108093          	addi	ra,ra,1 # 80000001 <_end+0xffffe001>
8000026c:	41f0d713          	srai	a4,ra,0x1f
80000270:	00000013          	nop
80000274:	00000013          	nop
80000278:	00070313          	mv	t1,a4
8000027c:	00120213          	addi	tp,tp,1 # 1 <_start-0x7fffffff>
80000280:	00200293          	li	t0,2
80000284:	fe5210e3          	bne	tp,t0,80000264 <test_20+0x4>
80000288:	fff00393          	li	t2,-1
8000028c:	01400193          	li	gp,20
80000290:	0a731463          	bne	t1,t2,80000338 <fail>

80000294 <test_21>:
80000294:	00000213          	li	tp,0
80000298:	800000b7          	lui	ra,0x80000
8000029c:	4070d713          	srai	a4,ra,0x7
800002a0:	00120213          	addi	tp,tp,1 # 1 <_start-0x7fffffff>
800002a4:	00200293          	li	t0,2
800002a8:	fe5218e3          	bne	tp,t0,80000298 <test_21+0x4>
800002ac:	ff0003b7          	lui	t2,0xff000
800002b0:	01500193          	li	gp,21
800002b4:	08771263          	bne	a4,t2,80000338 <fail>

800002b8 <test_22>:
800002b8:	00000213          	li	tp,0
800002bc:	800000b7          	lui	ra,0x80000
800002c0:	00000013          	nop
800002c4:	40e0d713          	srai	a4,ra,0xe
800002c8:	00120213          	addi	tp,tp,1 # 1 <_start-0x7fffffff>
800002cc:	00200293          	li	t0,2
800002d0:	fe5216e3          	bne	tp,t0,800002bc <test_22+0x4>
800002d4:	fffe03b7          	lui	t2,0xfffe0
800002d8:	01600193          	li	gp,22
800002dc:	04771e63          	bne	a4,t2,80000338 <fail>

800002e0 <test_23>:
800002e0:	00000213          	li	tp,0
800002e4:	800000b7          	lui	ra,0x80000
800002e8:	00108093          	addi	ra,ra,1 # 80000001 <_end+0xffffe001>
800002ec:	00000013          	nop
800002f0:	00000013          	nop
800002f4:	41f0d713          	srai	a4,ra,0x1f
800002f8:	00120213          	addi	tp,tp,1 # 1 <_start-0x7fffffff>
800002fc:	00200293          	li	t0,2
80000300:	fe5212e3          	bne	tp,t0,800002e4 <test_23+0x4>
80000304:	fff00393          	li	t2,-1
80000308:	01700193          	li	gp,23
8000030c:	02771663          	bne	a4,t2,80000338 <fail>

80000310 <test_24>:
80000310:	40405093          	srai	ra,zero,0x4
80000314:	00000393          	li	t2,0
80000318:	01800193          	li	gp,24
8000031c:	00709e63          	bne	ra,t2,80000338 <fail>

80000320 <test_25>:
80000320:	02100093          	li	ra,33
80000324:	40a0d013          	srai	zero,ra,0xa
80000328:	00000393          	li	t2,0
8000032c:	01900193          	li	gp,25
80000330:	00701463          	bne	zero,t2,80000338 <fail>
80000334:	02301063          	bne	zero,gp,80000354 <pass>

80000338 <fail>:
80000338:	0ff0000f          	fence
8000033c:	00018063          	beqz	gp,8000033c <fail+0x4>
80000340:	00119193          	slli	gp,gp,0x1
80000344:	0011e193          	ori	gp,gp,1
80000348:	05d00893          	li	a7,93
8000034c:	00018513          	mv	a0,gp
80000350:	00000073          	ecall

80000354 <pass>:
80000354:	0ff0000f          	fence
80000358:	00100193          	li	gp,1
8000035c:	05d00893          	li	a7,93
80000360:	00000513          	li	a0,0
80000364:	00000073          	ecall
80000368:	c0001073          	unimp
8000036c:	0000                	unimp
8000036e:	0000                	unimp
80000370:	0000                	unimp
80000372:	0000                	unimp
80000374:	0000                	unimp
80000376:	0000                	unimp
80000378:	0000                	unimp
8000037a:	0000                	unimp
8000037c:	0000                	unimp
8000037e:	0000                	unimp
80000380:	0000                	unimp
80000382:	0000                	unimp
