
rv32ui-p-sltu:     file format elf32-littleriscv


Disassembly of section .text.init:

80000000 <_start>:
80000000:	00000093          	li	ra,0
80000004:	00000113          	li	sp,0
80000008:	00000193          	li	gp,0
8000000c:	00000213          	li	tp,0
80000010:	00000293          	li	t0,0
80000014:	00000313          	li	t1,0
80000018:	00000393          	li	t2,0
8000001c:	00000413          	li	s0,0
80000020:	00000493          	li	s1,0
80000024:	00000513          	li	a0,0
80000028:	00000593          	li	a1,0
8000002c:	00000613          	li	a2,0
80000030:	00000693          	li	a3,0
80000034:	00000713          	li	a4,0
80000038:	00000793          	li	a5,0
8000003c:	00000813          	li	a6,0
80000040:	00000893          	li	a7,0
80000044:	00000913          	li	s2,0
80000048:	00000993          	li	s3,0
8000004c:	00000a13          	li	s4,0
80000050:	00000a93          	li	s5,0
80000054:	00000b13          	li	s6,0
80000058:	00000b93          	li	s7,0
8000005c:	00000c13          	li	s8,0
80000060:	00000c93          	li	s9,0
80000064:	00000d13          	li	s10,0
80000068:	00000d93          	li	s11,0
8000006c:	00000e13          	li	t3,0
80000070:	00000e93          	li	t4,0
80000074:	00000f13          	li	t5,0
80000078:	00000f93          	li	t6,0
8000007c:	00000013          	nop

80000080 <test_2>:
80000080:	00000093          	li	ra,0
80000084:	00000113          	li	sp,0
80000088:	0020b733          	sltu	a4,ra,sp
8000008c:	00000393          	li	t2,0
80000090:	00200193          	li	gp,2
80000094:	4a771a63          	bne	a4,t2,80000548 <fail>

80000098 <test_3>:
80000098:	00100093          	li	ra,1
8000009c:	00100113          	li	sp,1
800000a0:	0020b733          	sltu	a4,ra,sp
800000a4:	00000393          	li	t2,0
800000a8:	00300193          	li	gp,3
800000ac:	48771e63          	bne	a4,t2,80000548 <fail>

800000b0 <test_4>:
800000b0:	00300093          	li	ra,3
800000b4:	00700113          	li	sp,7
800000b8:	0020b733          	sltu	a4,ra,sp
800000bc:	00100393          	li	t2,1
800000c0:	00400193          	li	gp,4
800000c4:	48771263          	bne	a4,t2,80000548 <fail>

800000c8 <test_5>:
800000c8:	00700093          	li	ra,7
800000cc:	00300113          	li	sp,3
800000d0:	0020b733          	sltu	a4,ra,sp
800000d4:	00000393          	li	t2,0
800000d8:	00500193          	li	gp,5
800000dc:	46771663          	bne	a4,t2,80000548 <fail>

800000e0 <test_6>:
800000e0:	00000093          	li	ra,0
800000e4:	ffff8137          	lui	sp,0xffff8
800000e8:	0020b733          	sltu	a4,ra,sp
800000ec:	00100393          	li	t2,1
800000f0:	00600193          	li	gp,6
800000f4:	44771a63          	bne	a4,t2,80000548 <fail>

800000f8 <test_7>:
800000f8:	800000b7          	lui	ra,0x80000
800000fc:	00000113          	li	sp,0
80000100:	0020b733          	sltu	a4,ra,sp
80000104:	00000393          	li	t2,0
80000108:	00700193          	li	gp,7
8000010c:	42771e63          	bne	a4,t2,80000548 <fail>

80000110 <test_8>:
80000110:	800000b7          	lui	ra,0x80000
80000114:	ffff8137          	lui	sp,0xffff8
80000118:	0020b733          	sltu	a4,ra,sp
8000011c:	00100393          	li	t2,1
80000120:	00800193          	li	gp,8
80000124:	42771263          	bne	a4,t2,80000548 <fail>

80000128 <test_9>:
80000128:	00000093          	li	ra,0
8000012c:	00008137          	lui	sp,0x8
80000130:	fff10113          	addi	sp,sp,-1 # 7fff <_start-0x7fff8001>
80000134:	0020b733          	sltu	a4,ra,sp
80000138:	00100393          	li	t2,1
8000013c:	00900193          	li	gp,9
80000140:	40771463          	bne	a4,t2,80000548 <fail>

80000144 <test_10>:
80000144:	800000b7          	lui	ra,0x80000
80000148:	fff08093          	addi	ra,ra,-1 # 7fffffff <_end+0xffffdfff>
8000014c:	00000113          	li	sp,0
80000150:	0020b733          	sltu	a4,ra,sp
80000154:	00000393          	li	t2,0
80000158:	00a00193          	li	gp,10
8000015c:	3e771663          	bne	a4,t2,80000548 <fail>

80000160 <test_11>:
80000160:	800000b7          	lui	ra,0x80000
80000164:	fff08093          	addi	ra,ra,-1 # 7fffffff <_end+0xffffdfff>
80000168:	00008137          	lui	sp,0x8
8000016c:	fff10113          	addi	sp,sp,-1 # 7fff <_start-0x7fff8001>
80000170:	0020b733          	sltu	a4,ra,sp
80000174:	00000393          	li	t2,0
80000178:	00b00193          	li	gp,11
8000017c:	3c771663          	bne	a4,t2,80000548 <fail>

80000180 <test_12>:
80000180:	800000b7          	lui	ra,0x80000
80000184:	00008137          	lui	sp,0x8
80000188:	fff10113          	addi	sp,sp,-1 # 7fff <_start-0x7fff8001>
8000018c:	0020b733          	sltu	a4,ra,sp
80000190:	00000393          	li	t2,0
80000194:	00c00193          	li	gp,12
80000198:	3a771863          	bne	a4,t2,80000548 <fail>

8000019c <test_13>:
8000019c:	800000b7          	lui	ra,0x80000
800001a0:	fff08093          	addi	ra,ra,-1 # 7fffffff <_end+0xffffdfff>
800001a4:	ffff8137          	lui	sp,0xffff8
800001a8:	0020b733          	sltu	a4,ra,sp
800001ac:	00100393          	li	t2,1
800001b0:	00d00193          	li	gp,13
800001b4:	38771a63          	bne	a4,t2,80000548 <fail>

800001b8 <test_14>:
800001b8:	00000093          	li	ra,0
800001bc:	fff00113          	li	sp,-1
800001c0:	0020b733          	sltu	a4,ra,sp
800001c4:	00100393          	li	t2,1
800001c8:	00e00193          	li	gp,14
800001cc:	36771e63          	bne	a4,t2,80000548 <fail>

800001d0 <test_15>:
800001d0:	fff00093          	li	ra,-1
800001d4:	00100113          	li	sp,1
800001d8:	0020b733          	sltu	a4,ra,sp
800001dc:	00000393          	li	t2,0
800001e0:	00f00193          	li	gp,15
800001e4:	36771263          	bne	a4,t2,80000548 <fail>

800001e8 <test_16>:
800001e8:	fff00093          	li	ra,-1
800001ec:	fff00113          	li	sp,-1
800001f0:	0020b733          	sltu	a4,ra,sp
800001f4:	00000393          	li	t2,0
800001f8:	01000193          	li	gp,16
800001fc:	34771663          	bne	a4,t2,80000548 <fail>

80000200 <test_17>:
80000200:	00e00093          	li	ra,14
80000204:	00d00113          	li	sp,13
80000208:	0020b0b3          	sltu	ra,ra,sp
8000020c:	00000393          	li	t2,0
80000210:	01100193          	li	gp,17
80000214:	32709a63          	bne	ra,t2,80000548 <fail>

80000218 <test_18>:
80000218:	00b00093          	li	ra,11
8000021c:	00d00113          	li	sp,13
80000220:	0020b133          	sltu	sp,ra,sp
80000224:	00100393          	li	t2,1
80000228:	01200193          	li	gp,18
8000022c:	30711e63          	bne	sp,t2,80000548 <fail>

80000230 <test_19>:
80000230:	00d00093          	li	ra,13
80000234:	0010b0b3          	sltu	ra,ra,ra
80000238:	00000393          	li	t2,0
8000023c:	01300193          	li	gp,19
80000240:	30709463          	bne	ra,t2,80000548 <fail>

80000244 <test_20>:
80000244:	00000213          	li	tp,0
80000248:	00b00093          	li	ra,11
8000024c:	00d00113          	li	sp,13
80000250:	0020b733          	sltu	a4,ra,sp
80000254:	00070313          	mv	t1,a4
80000258:	00120213          	addi	tp,tp,1 # 1 <_start-0x7fffffff>
8000025c:	00200293          	li	t0,2
80000260:	fe5214e3          	bne	tp,t0,80000248 <test_20+0x4>
80000264:	00100393          	li	t2,1
80000268:	01400193          	li	gp,20
8000026c:	2c731e63          	bne	t1,t2,80000548 <fail>

80000270 <test_21>:
80000270:	00000213          	li	tp,0
80000274:	00e00093          	li	ra,14
80000278:	00d00113          	li	sp,13
8000027c:	0020b733          	sltu	a4,ra,sp
80000280:	00000013          	nop
80000284:	00070313          	mv	t1,a4
80000288:	00120213          	addi	tp,tp,1 # 1 <_start-0x7fffffff>
8000028c:	00200293          	li	t0,2
80000290:	fe5212e3          	bne	tp,t0,80000274 <test_21+0x4>
80000294:	00000393          	li	t2,0
80000298:	01500193          	li	gp,21
8000029c:	2a731663          	bne	t1,t2,80000548 <fail>

800002a0 <test_22>:
800002a0:	00000213          	li	tp,0
800002a4:	00c00093          	li	ra,12
800002a8:	00d00113          	li	sp,13
800002ac:	0020b733          	sltu	a4,ra,sp
800002b0:	00000013          	nop
800002b4:	00000013          	nop
800002b8:	00070313          	mv	t1,a4
800002bc:	00120213          	addi	tp,tp,1 # 1 <_start-0x7fffffff>
800002c0:	00200293          	li	t0,2
800002c4:	fe5210e3          	bne	tp,t0,800002a4 <test_22+0x4>
800002c8:	00100393          	li	t2,1
800002cc:	01600193          	li	gp,22
800002d0:	26731c63          	bne	t1,t2,80000548 <fail>

800002d4 <test_23>:
800002d4:	00000213          	li	tp,0
800002d8:	00e00093          	li	ra,14
800002dc:	00d00113          	li	sp,13
800002e0:	0020b733          	sltu	a4,ra,sp
800002e4:	00120213          	addi	tp,tp,1 # 1 <_start-0x7fffffff>
800002e8:	00200293          	li	t0,2
800002ec:	fe5216e3          	bne	tp,t0,800002d8 <test_23+0x4>
800002f0:	00000393          	li	t2,0
800002f4:	01700193          	li	gp,23
800002f8:	24771863          	bne	a4,t2,80000548 <fail>

800002fc <test_24>:
800002fc:	00000213          	li	tp,0
80000300:	00b00093          	li	ra,11
80000304:	00d00113          	li	sp,13
80000308:	00000013          	nop
8000030c:	0020b733          	sltu	a4,ra,sp
80000310:	00120213          	addi	tp,tp,1 # 1 <_start-0x7fffffff>
80000314:	00200293          	li	t0,2
80000318:	fe5214e3          	bne	tp,t0,80000300 <test_24+0x4>
8000031c:	00100393          	li	t2,1
80000320:	01800193          	li	gp,24
80000324:	22771263          	bne	a4,t2,80000548 <fail>

80000328 <test_25>:
80000328:	00000213          	li	tp,0
8000032c:	00f00093          	li	ra,15
80000330:	00d00113          	li	sp,13
80000334:	00000013          	nop
80000338:	00000013          	nop
8000033c:	0020b733          	sltu	a4,ra,sp
80000340:	00120213          	addi	tp,tp,1 # 1 <_start-0x7fffffff>
80000344:	00200293          	li	t0,2
80000348:	fe5212e3          	bne	tp,t0,8000032c <test_25+0x4>
8000034c:	00000393          	li	t2,0
80000350:	01900193          	li	gp,25
80000354:	1e771a63          	bne	a4,t2,80000548 <fail>

80000358 <test_26>:
80000358:	00000213          	li	tp,0
8000035c:	00a00093          	li	ra,10
80000360:	00000013          	nop
80000364:	00d00113          	li	sp,13
80000368:	0020b733          	sltu	a4,ra,sp
8000036c:	00120213          	addi	tp,tp,1 # 1 <_start-0x7fffffff>
80000370:	00200293          	li	t0,2
80000374:	fe5214e3          	bne	tp,t0,8000035c <test_26+0x4>
80000378:	00100393          	li	t2,1
8000037c:	01a00193          	li	gp,26
80000380:	1c771463          	bne	a4,t2,80000548 <fail>

80000384 <test_27>:
80000384:	00000213          	li	tp,0
80000388:	01000093          	li	ra,16
8000038c:	00000013          	nop
80000390:	00d00113          	li	sp,13
80000394:	00000013          	nop
80000398:	0020b733          	sltu	a4,ra,sp
8000039c:	00120213          	addi	tp,tp,1 # 1 <_start-0x7fffffff>
800003a0:	00200293          	li	t0,2
800003a4:	fe5212e3          	bne	tp,t0,80000388 <test_27+0x4>
800003a8:	00000393          	li	t2,0
800003ac:	01b00193          	li	gp,27
800003b0:	18771c63          	bne	a4,t2,80000548 <fail>

800003b4 <test_28>:
800003b4:	00000213          	li	tp,0
800003b8:	00900093          	li	ra,9
800003bc:	00000013          	nop
800003c0:	00000013          	nop
800003c4:	00d00113          	li	sp,13
800003c8:	0020b733          	sltu	a4,ra,sp
800003cc:	00120213          	addi	tp,tp,1 # 1 <_start-0x7fffffff>
800003d0:	00200293          	li	t0,2
800003d4:	fe5212e3          	bne	tp,t0,800003b8 <test_28+0x4>
800003d8:	00100393          	li	t2,1
800003dc:	01c00193          	li	gp,28
800003e0:	16771463          	bne	a4,t2,80000548 <fail>

800003e4 <test_29>:
800003e4:	00000213          	li	tp,0
800003e8:	00d00113          	li	sp,13
800003ec:	01100093          	li	ra,17
800003f0:	0020b733          	sltu	a4,ra,sp
800003f4:	00120213          	addi	tp,tp,1 # 1 <_start-0x7fffffff>
800003f8:	00200293          	li	t0,2
800003fc:	fe5216e3          	bne	tp,t0,800003e8 <test_29+0x4>
80000400:	00000393          	li	t2,0
80000404:	01d00193          	li	gp,29
80000408:	14771063          	bne	a4,t2,80000548 <fail>

8000040c <test_30>:
8000040c:	00000213          	li	tp,0
80000410:	00d00113          	li	sp,13
80000414:	00800093          	li	ra,8
80000418:	00000013          	nop
8000041c:	0020b733          	sltu	a4,ra,sp
80000420:	00120213          	addi	tp,tp,1 # 1 <_start-0x7fffffff>
80000424:	00200293          	li	t0,2
80000428:	fe5214e3          	bne	tp,t0,80000410 <test_30+0x4>
8000042c:	00100393          	li	t2,1
80000430:	01e00193          	li	gp,30
80000434:	10771a63          	bne	a4,t2,80000548 <fail>

80000438 <test_31>:
80000438:	00000213          	li	tp,0
8000043c:	00d00113          	li	sp,13
80000440:	01200093          	li	ra,18
80000444:	00000013          	nop
80000448:	00000013          	nop
8000044c:	0020b733          	sltu	a4,ra,sp
80000450:	00120213          	addi	tp,tp,1 # 1 <_start-0x7fffffff>
80000454:	00200293          	li	t0,2
80000458:	fe5212e3          	bne	tp,t0,8000043c <test_31+0x4>
8000045c:	00000393          	li	t2,0
80000460:	01f00193          	li	gp,31
80000464:	0e771263          	bne	a4,t2,80000548 <fail>

80000468 <test_32>:
80000468:	00000213          	li	tp,0
8000046c:	00d00113          	li	sp,13
80000470:	00000013          	nop
80000474:	00700093          	li	ra,7
80000478:	0020b733          	sltu	a4,ra,sp
8000047c:	00120213          	addi	tp,tp,1 # 1 <_start-0x7fffffff>
80000480:	00200293          	li	t0,2
80000484:	fe5214e3          	bne	tp,t0,8000046c <test_32+0x4>
80000488:	00100393          	li	t2,1
8000048c:	02000193          	li	gp,32
80000490:	0a771c63          	bne	a4,t2,80000548 <fail>

80000494 <test_33>:
80000494:	00000213          	li	tp,0
80000498:	00d00113          	li	sp,13
8000049c:	00000013          	nop
800004a0:	01300093          	li	ra,19
800004a4:	00000013          	nop
800004a8:	0020b733          	sltu	a4,ra,sp
800004ac:	00120213          	addi	tp,tp,1 # 1 <_start-0x7fffffff>
800004b0:	00200293          	li	t0,2
800004b4:	fe5212e3          	bne	tp,t0,80000498 <test_33+0x4>
800004b8:	00000393          	li	t2,0
800004bc:	02100193          	li	gp,33
800004c0:	08771463          	bne	a4,t2,80000548 <fail>

800004c4 <test_34>:
800004c4:	00000213          	li	tp,0
800004c8:	00d00113          	li	sp,13
800004cc:	00000013          	nop
800004d0:	00000013          	nop
800004d4:	00600093          	li	ra,6
800004d8:	0020b733          	sltu	a4,ra,sp
800004dc:	00120213          	addi	tp,tp,1 # 1 <_start-0x7fffffff>
800004e0:	00200293          	li	t0,2
800004e4:	fe5212e3          	bne	tp,t0,800004c8 <test_34+0x4>
800004e8:	00100393          	li	t2,1
800004ec:	02200193          	li	gp,34
800004f0:	04771c63          	bne	a4,t2,80000548 <fail>

800004f4 <test_35>:
800004f4:	fff00093          	li	ra,-1
800004f8:	00103133          	snez	sp,ra
800004fc:	00100393          	li	t2,1
80000500:	02300193          	li	gp,35
80000504:	04711263          	bne	sp,t2,80000548 <fail>

80000508 <test_36>:
80000508:	fff00093          	li	ra,-1
8000050c:	0000b133          	sltu	sp,ra,zero
80000510:	00000393          	li	t2,0
80000514:	02400193          	li	gp,36
80000518:	02711863          	bne	sp,t2,80000548 <fail>

8000051c <test_37>:
8000051c:	000030b3          	snez	ra,zero
80000520:	00000393          	li	t2,0
80000524:	02500193          	li	gp,37
80000528:	02709063          	bne	ra,t2,80000548 <fail>

8000052c <test_38>:
8000052c:	01000093          	li	ra,16
80000530:	01e00113          	li	sp,30
80000534:	0020b033          	sltu	zero,ra,sp
80000538:	00000393          	li	t2,0
8000053c:	02600193          	li	gp,38
80000540:	00701463          	bne	zero,t2,80000548 <fail>
80000544:	02301063          	bne	zero,gp,80000564 <pass>

80000548 <fail>:
80000548:	0ff0000f          	fence
8000054c:	00018063          	beqz	gp,8000054c <fail+0x4>
80000550:	00119193          	slli	gp,gp,0x1
80000554:	0011e193          	ori	gp,gp,1
80000558:	05d00893          	li	a7,93
8000055c:	00018513          	mv	a0,gp
80000560:	00000073          	ecall

80000564 <pass>:
80000564:	0ff0000f          	fence
80000568:	00100193          	li	gp,1
8000056c:	05d00893          	li	a7,93
80000570:	00000513          	li	a0,0
80000574:	00000073          	ecall
80000578:	c0001073          	unimp
8000057c:	0000                	unimp
8000057e:	0000                	unimp
80000580:	0000                	unimp
80000582:	0000                	unimp
